; ModuleID = '41/1046.cpp'
source_filename = "41/1046.cpp"
target datalayout = "e-m:e-p270:32:32-p271:32:32-p272:64:64-i64:64-f80:128-n8:16:32:64-S128"
target triple = "x86_64-pc-linux-gnu"

%"class.std::ios_base::Init" = type { i8 }
%"class.std::basic_ostream" = type { i32 (...)**, %"class.std::basic_ios" }
%"class.std::basic_ios" = type { %"class.std::ios_base", %"class.std::basic_ostream"*, i8, i8, %"class.std::basic_streambuf"*, %"class.std::ctype"*, %"class.std::num_put"*, %"class.std::num_get"* }
%"class.std::ios_base" = type { i32 (...)**, i64, i64, i32, i32, i32, %"struct.std::ios_base::_Callback_list"*, %"struct.std::ios_base::_Words", [8 x %"struct.std::ios_base::_Words"], i32, %"struct.std::ios_base::_Words"*, %"class.std::locale" }
%"struct.std::ios_base::_Callback_list" = type { %"struct.std::ios_base::_Callback_list"*, void (i32, %"class.std::ios_base"*, i32)*, i32, i32 }
%"struct.std::ios_base::_Words" = type { i8*, i64 }
%"class.std::locale" = type { %"class.std::locale::_Impl"* }
%"class.std::locale::_Impl" = type { i32, %"class.std::locale::facet"**, i64, %"class.std::locale::facet"**, i8** }
%"class.std::locale::facet" = type <{ i32 (...)**, i32, [4 x i8] }>
%"class.std::basic_streambuf" = type { i32 (...)**, i8*, i8*, i8*, i8*, i8*, i8*, %"class.std::locale" }
%"class.std::ctype" = type <{ %"class.std::locale::facet.base", [4 x i8], %struct.__locale_struct*, i8, [7 x i8], i32*, i32*, i16*, i8, [256 x i8], [256 x i8], i8, [6 x i8] }>
%"class.std::locale::facet.base" = type <{ i32 (...)**, i32 }>
%struct.__locale_struct = type { [13 x %struct.__locale_data*], i16*, i32*, i32*, [13 x i8*] }
%struct.__locale_data = type opaque
%"class.std::num_put" = type { %"class.std::locale::facet.base", [4 x i8] }
%"class.std::num_get" = type { %"class.std::locale::facet.base", [4 x i8] }

@_ZStL8__ioinit = internal global %"class.std::ios_base::Init" zeroinitializer, align 1
@__dso_handle = external hidden global i8
@_ZSt4cout = external dso_local global %"class.std::basic_ostream", align 8
@llvm.global_ctors = appending global [1 x { i32, void ()*, i8* }] [{ i32, void ()*, i8* } { i32 65535, void ()* @_GLOBAL__sub_I_1046.cpp, i8* null }]

; Function Attrs: noinline uwtable
define internal void @__cxx_global_var_init() #0 section ".text.startup" {
  call void @_ZNSt8ios_base4InitC1Ev(%"class.std::ios_base::Init"* @_ZStL8__ioinit)
  %1 = call i32 @__cxa_atexit(void (i8*)* bitcast (void (%"class.std::ios_base::Init"*)* @_ZNSt8ios_base4InitD1Ev to void (i8*)*), i8* getelementptr inbounds (%"class.std::ios_base::Init", %"class.std::ios_base::Init"* @_ZStL8__ioinit, i32 0, i32 0), i8* @__dso_handle) #3
  ret void
}

declare dso_local void @_ZNSt8ios_base4InitC1Ev(%"class.std::ios_base::Init"*) unnamed_addr #1

; Function Attrs: nounwind
declare dso_local void @_ZNSt8ios_base4InitD1Ev(%"class.std::ios_base::Init"*) unnamed_addr #2

; Function Attrs: nounwind
declare dso_local i32 @__cxa_atexit(void (i8*)*, i8*, i8*) #3

; Function Attrs: noinline norecurse uwtable
define dso_local i32 @main() #4 {
  %1 = alloca i32, align 4
  %2 = alloca [6 x i32], align 16
  %3 = alloca [6 x i32], align 16
  %4 = alloca i32, align 4
  store i32 0, i32* %1, align 4
  %5 = bitcast [6 x i32]* %2 to i8*
  call void @llvm.memset.p0i8.i64(i8* align 16 %5, i8 0, i64 24, i1 false)
  %6 = bitcast [6 x i32]* %3 to i8*
  call void @llvm.memset.p0i8.i64(i8* align 16 %6, i8 0, i64 24, i1 false)
  %7 = getelementptr inbounds [6 x i32], [6 x i32]* %2, i64 0, i64 1
  store i32 1, i32* %7, align 4
  br label %8

8:                                                ; preds = %185, %0
  %9 = getelementptr inbounds [6 x i32], [6 x i32]* %2, i64 0, i64 1
  %10 = load i32, i32* %9, align 4
  %11 = icmp sle i32 %10, 5
  br i1 %11, label %12, label %189

12:                                               ; preds = %8
  %13 = getelementptr inbounds [6 x i32], [6 x i32]* %2, i64 0, i64 2
  store i32 1, i32* %13, align 8
  br label %14

14:                                               ; preds = %180, %12
  %15 = getelementptr inbounds [6 x i32], [6 x i32]* %2, i64 0, i64 2
  %16 = load i32, i32* %15, align 8
  %17 = icmp sle i32 %16, 5
  br i1 %17, label %18, label %184

18:                                               ; preds = %14
  %19 = getelementptr inbounds [6 x i32], [6 x i32]* %2, i64 0, i64 2
  %20 = load i32, i32* %19, align 8
  %21 = getelementptr inbounds [6 x i32], [6 x i32]* %2, i64 0, i64 1
  %22 = load i32, i32* %21, align 4
  %23 = icmp ne i32 %20, %22
  br i1 %23, label %24, label %179

24:                                               ; preds = %18
  %25 = getelementptr inbounds [6 x i32], [6 x i32]* %2, i64 0, i64 3
  store i32 1, i32* %25, align 4
  br label %26

26:                                               ; preds = %174, %24
  %27 = getelementptr inbounds [6 x i32], [6 x i32]* %2, i64 0, i64 3
  %28 = load i32, i32* %27, align 4
  %29 = icmp sle i32 %28, 5
  br i1 %29, label %30, label %178

30:                                               ; preds = %26
  %31 = getelementptr inbounds [6 x i32], [6 x i32]* %2, i64 0, i64 3
  %32 = load i32, i32* %31, align 4
  %33 = getelementptr inbounds [6 x i32], [6 x i32]* %2, i64 0, i64 1
  %34 = load i32, i32* %33, align 4
  %35 = icmp ne i32 %32, %34
  br i1 %35, label %36, label %173

36:                                               ; preds = %30
  %37 = getelementptr inbounds [6 x i32], [6 x i32]* %2, i64 0, i64 3
  %38 = load i32, i32* %37, align 4
  %39 = getelementptr inbounds [6 x i32], [6 x i32]* %2, i64 0, i64 2
  %40 = load i32, i32* %39, align 8
  %41 = icmp ne i32 %38, %40
  br i1 %41, label %42, label %173

42:                                               ; preds = %36
  %43 = getelementptr inbounds [6 x i32], [6 x i32]* %2, i64 0, i64 4
  store i32 1, i32* %43, align 16
  br label %44

44:                                               ; preds = %168, %42
  %45 = getelementptr inbounds [6 x i32], [6 x i32]* %2, i64 0, i64 4
  %46 = load i32, i32* %45, align 16
  %47 = icmp sle i32 %46, 5
  br i1 %47, label %48, label %172

48:                                               ; preds = %44
  %49 = getelementptr inbounds [6 x i32], [6 x i32]* %2, i64 0, i64 4
  %50 = load i32, i32* %49, align 16
  %51 = getelementptr inbounds [6 x i32], [6 x i32]* %2, i64 0, i64 1
  %52 = load i32, i32* %51, align 4
  %53 = icmp ne i32 %50, %52
  br i1 %53, label %54, label %167

54:                                               ; preds = %48
  %55 = getelementptr inbounds [6 x i32], [6 x i32]* %2, i64 0, i64 4
  %56 = load i32, i32* %55, align 16
  %57 = getelementptr inbounds [6 x i32], [6 x i32]* %2, i64 0, i64 2
  %58 = load i32, i32* %57, align 8
  %59 = icmp ne i32 %56, %58
  br i1 %59, label %60, label %167

60:                                               ; preds = %54
  %61 = getelementptr inbounds [6 x i32], [6 x i32]* %2, i64 0, i64 4
  %62 = load i32, i32* %61, align 16
  %63 = getelementptr inbounds [6 x i32], [6 x i32]* %2, i64 0, i64 3
  %64 = load i32, i32* %63, align 4
  %65 = icmp ne i32 %62, %64
  br i1 %65, label %66, label %167

66:                                               ; preds = %60
  %67 = getelementptr inbounds [6 x i32], [6 x i32]* %2, i64 0, i64 1
  %68 = load i32, i32* %67, align 4
  %69 = sub nsw i32 15, %68
  %70 = getelementptr inbounds [6 x i32], [6 x i32]* %2, i64 0, i64 2
  %71 = load i32, i32* %70, align 8
  %72 = sub nsw i32 %69, %71
  %73 = getelementptr inbounds [6 x i32], [6 x i32]* %2, i64 0, i64 3
  %74 = load i32, i32* %73, align 4
  %75 = sub nsw i32 %72, %74
  %76 = getelementptr inbounds [6 x i32], [6 x i32]* %2, i64 0, i64 4
  %77 = load i32, i32* %76, align 16
  %78 = sub nsw i32 %75, %77
  %79 = getelementptr inbounds [6 x i32], [6 x i32]* %2, i64 0, i64 5
  store i32 %78, i32* %79, align 4
  %80 = getelementptr inbounds [6 x i32], [6 x i32]* %2, i64 0, i64 5
  %81 = load i32, i32* %80, align 4
  %82 = icmp ne i32 %81, 2
  br i1 %82, label %83, label %166

83:                                               ; preds = %66
  %84 = getelementptr inbounds [6 x i32], [6 x i32]* %2, i64 0, i64 5
  %85 = load i32, i32* %84, align 4
  %86 = icmp ne i32 %85, 3
  br i1 %86, label %87, label %166

87:                                               ; preds = %83
  %88 = getelementptr inbounds [6 x i32], [6 x i32]* %2, i64 0, i64 5
  %89 = load i32, i32* %88, align 4
  %90 = icmp eq i32 %89, 1
  %91 = zext i1 %90 to i32
  %92 = getelementptr inbounds [6 x i32], [6 x i32]* %2, i64 0, i64 1
  %93 = load i32, i32* %92, align 4
  %94 = sext i32 %93 to i64
  %95 = getelementptr inbounds [6 x i32], [6 x i32]* %3, i64 0, i64 %94
  store i32 %91, i32* %95, align 4
  %96 = getelementptr inbounds [6 x i32], [6 x i32]* %2, i64 0, i64 2
  %97 = load i32, i32* %96, align 8
  %98 = icmp eq i32 %97, 2
  %99 = zext i1 %98 to i32
  %100 = getelementptr inbounds [6 x i32], [6 x i32]* %2, i64 0, i64 2
  %101 = load i32, i32* %100, align 8
  %102 = sext i32 %101 to i64
  %103 = getelementptr inbounds [6 x i32], [6 x i32]* %3, i64 0, i64 %102
  store i32 %99, i32* %103, align 4
  %104 = getelementptr inbounds [6 x i32], [6 x i32]* %2, i64 0, i64 1
  %105 = load i32, i32* %104, align 4
  %106 = icmp eq i32 %105, 5
  %107 = zext i1 %106 to i32
  %108 = getelementptr inbounds [6 x i32], [6 x i32]* %2, i64 0, i64 3
  %109 = load i32, i32* %108, align 4
  %110 = sext i32 %109 to i64
  %111 = getelementptr inbounds [6 x i32], [6 x i32]* %3, i64 0, i64 %110
  store i32 %107, i32* %111, align 4
  %112 = getelementptr inbounds [6 x i32], [6 x i32]* %2, i64 0, i64 3
  %113 = load i32, i32* %112, align 4
  %114 = icmp ne i32 %113, 1
  %115 = zext i1 %114 to i32
  %116 = getelementptr inbounds [6 x i32], [6 x i32]* %2, i64 0, i64 4
  %117 = load i32, i32* %116, align 16
  %118 = sext i32 %117 to i64
  %119 = getelementptr inbounds [6 x i32], [6 x i32]* %3, i64 0, i64 %118
  store i32 %115, i32* %119, align 4
  %120 = getelementptr inbounds [6 x i32], [6 x i32]* %2, i64 0, i64 4
  %121 = load i32, i32* %120, align 16
  %122 = icmp eq i32 %121, 1
  %123 = zext i1 %122 to i32
  %124 = getelementptr inbounds [6 x i32], [6 x i32]* %2, i64 0, i64 5
  %125 = load i32, i32* %124, align 4
  %126 = sext i32 %125 to i64
  %127 = getelementptr inbounds [6 x i32], [6 x i32]* %3, i64 0, i64 %126
  store i32 %123, i32* %127, align 4
  %128 = getelementptr inbounds [6 x i32], [6 x i32]* %3, i64 0, i64 1
  %129 = load i32, i32* %128, align 4
  %130 = icmp eq i32 %129, 1
  br i1 %130, label %131, label %165

131:                                              ; preds = %87
  %132 = getelementptr inbounds [6 x i32], [6 x i32]* %3, i64 0, i64 2
  %133 = load i32, i32* %132, align 8
  %134 = icmp eq i32 %133, 1
  br i1 %134, label %135, label %165

135:                                              ; preds = %131
  %136 = getelementptr inbounds [6 x i32], [6 x i32]* %3, i64 0, i64 3
  %137 = load i32, i32* %136, align 4
  %138 = icmp eq i32 %137, 0
  br i1 %138, label %139, label %165

139:                                              ; preds = %135
  %140 = getelementptr inbounds [6 x i32], [6 x i32]* %3, i64 0, i64 4
  %141 = load i32, i32* %140, align 16
  %142 = icmp eq i32 %141, 0
  br i1 %142, label %143, label %165

143:                                              ; preds = %139
  %144 = getelementptr inbounds [6 x i32], [6 x i32]* %3, i64 0, i64 5
  %145 = load i32, i32* %144, align 4
  %146 = icmp eq i32 %145, 0
  br i1 %146, label %147, label %165

147:                                              ; preds = %143
  store i32 1, i32* %4, align 4
  br label %148

148:                                              ; preds = %158, %147
  %149 = load i32, i32* %4, align 4
  %150 = icmp sle i32 %149, 4
  br i1 %150, label %151, label %161

151:                                              ; preds = %148
  %152 = load i32, i32* %4, align 4
  %153 = sext i32 %152 to i64
  %154 = getelementptr inbounds [6 x i32], [6 x i32]* %2, i64 0, i64 %153
  %155 = load i32, i32* %154, align 4
  %156 = call dereferenceable(272) %"class.std::basic_ostream"* @_ZNSolsEi(%"class.std::basic_ostream"* @_ZSt4cout, i32 %155)
  %157 = call dereferenceable(272) %"class.std::basic_ostream"* @_ZStlsISt11char_traitsIcEERSt13basic_ostreamIcT_ES5_c(%"class.std::basic_ostream"* dereferenceable(272) %156, i8 signext 32)
  br label %158

158:                                              ; preds = %151
  %159 = load i32, i32* %4, align 4
  %160 = add nsw i32 %159, 1
  store i32 %160, i32* %4, align 4
  br label %148

161:                                              ; preds = %148
  %162 = getelementptr inbounds [6 x i32], [6 x i32]* %2, i64 0, i64 5
  %163 = load i32, i32* %162, align 4
  %164 = call dereferenceable(272) %"class.std::basic_ostream"* @_ZNSolsEi(%"class.std::basic_ostream"* @_ZSt4cout, i32 %163)
  br label %165

165:                                              ; preds = %161, %143, %139, %135, %131, %87
  br label %166

166:                                              ; preds = %165, %83, %66
  br label %167

167:                                              ; preds = %166, %60, %54, %48
  br label %168

168:                                              ; preds = %167
  %169 = getelementptr inbounds [6 x i32], [6 x i32]* %2, i64 0, i64 4
  %170 = load i32, i32* %169, align 16
  %171 = add nsw i32 %170, 1
  store i32 %171, i32* %169, align 16
  br label %44

172:                                              ; preds = %44
  br label %173

173:                                              ; preds = %172, %36, %30
  br label %174

174:                                              ; preds = %173
  %175 = getelementptr inbounds [6 x i32], [6 x i32]* %2, i64 0, i64 3
  %176 = load i32, i32* %175, align 4
  %177 = add nsw i32 %176, 1
  store i32 %177, i32* %175, align 4
  br label %26

178:                                              ; preds = %26
  br label %179

179:                                              ; preds = %178, %18
  br label %180

180:                                              ; preds = %179
  %181 = getelementptr inbounds [6 x i32], [6 x i32]* %2, i64 0, i64 2
  %182 = load i32, i32* %181, align 8
  %183 = add nsw i32 %182, 1
  store i32 %183, i32* %181, align 8
  br label %14

184:                                              ; preds = %14
  br label %185

185:                                              ; preds = %184
  %186 = getelementptr inbounds [6 x i32], [6 x i32]* %2, i64 0, i64 1
  %187 = load i32, i32* %186, align 4
  %188 = add nsw i32 %187, 1
  store i32 %188, i32* %186, align 4
  br label %8

189:                                              ; preds = %8
  ret i32 0
}

; Function Attrs: argmemonly nounwind willreturn
declare void @llvm.memset.p0i8.i64(i8* nocapture writeonly, i8, i64, i1 immarg) #5

declare dso_local dereferenceable(272) %"class.std::basic_ostream"* @_ZStlsISt11char_traitsIcEERSt13basic_ostreamIcT_ES5_c(%"class.std::basic_ostream"* dereferenceable(272), i8 signext) #1

declare dso_local dereferenceable(272) %"class.std::basic_ostream"* @_ZNSolsEi(%"class.std::basic_ostream"*, i32) #1

; Function Attrs: noinline uwtable
define internal void @_GLOBAL__sub_I_1046.cpp() #0 section ".text.startup" {
  call void @__cxx_global_var_init()
  ret void
}


!llvm.module.flags = !{!0}
!llvm.ident = !{!1}

!0 = !{i32 1, !"wchar_size", i32 4}
!1 = !{!"clang version 10.0.0-4ubuntu1 "}
